; Function Attrs: nounwind uwtable
define internal i32 @test_cmp_build_cert_chain_no_root() #0 {
  %1 = tail call fastcc ptr @set_up(ptr noundef nonnull @.str.57)
  %2 = icmp eq ptr %1, null
  br i1 %2, label %63, label %3

3:                                                ; preds = %0
  %4 = getelementptr inbounds nuw i8, ptr %1, i64 88
  store i32 1, ptr %4, align 8, !tbaa !43
  %5 = getelementptr inbounds nuw i8, ptr %1, i64 80
  store i32 0, ptr %5, align 8, !tbaa !44
  %6 = load ptr, ptr @endentity2, align 8, !tbaa !11
  %7 = getelementptr inbounds nuw i8, ptr %1, i64 56
  store ptr %6, ptr %7, align 8, !tbaa !45
  %8 = tail call ptr @OPENSSL_sk_new_null() #5
  %9 = getelementptr inbounds nuw i8, ptr %1, i64 64
  store ptr %8, ptr %9, align 8, !tbaa !39
  %10 = tail call i32 @test_ptr(ptr noundef nonnull @.str.14, i32 noundef 422, ptr noundef nonnull @.str.88, ptr noundef %8) #5
  %.not = icmp eq i32 %10, 0
  br i1 %.not, label %.thread, label %11

11:                                               ; preds = %3
  %12 = tail call ptr @OPENSSL_sk_new_null() #5
  %13 = getelementptr inbounds nuw i8, ptr %1, i64 72
  store ptr %12, ptr %13, align 8, !tbaa !40
  %14 = tail call i32 @test_ptr(ptr noundef nonnull @.str.14, i32 noundef 423, ptr noundef nonnull @.str.89, ptr noundef %12) #5
  %.not18 = icmp eq i32 %14, 0
  br i1 %.not18, label %.thread, label %15

15:                                               ; preds = %11
  %16 = load ptr, ptr %9, align 8, !tbaa !39
  %17 = load ptr, ptr @endentity1, align 8, !tbaa !11
  %18 = tail call i32 @OPENSSL_sk_push(ptr noundef %16, ptr noundef %17) #5
  %19 = icmp ne i32 %18, 0
  %20 = zext i1 %19 to i32
  %21 = tail call i32 @test_true(ptr noundef nonnull @.str.14, i32 noundef 424, ptr noundef nonnull @.str.90, i32 noundef %20) #5
  %.not19 = icmp eq i32 %21, 0
  br i1 %.not19, label %.thread, label %22

22:                                               ; preds = %15
  %23 = load ptr, ptr %9, align 8, !tbaa !39
  %24 = load ptr, ptr @intermediate, align 8, !tbaa !11
  %25 = tail call i32 @OPENSSL_sk_push(ptr noundef %23, ptr noundef %24) #5
  %26 = icmp ne i32 %25, 0
  %27 = zext i1 %26 to i32
  %28 = tail call i32 @test_true(ptr noundef nonnull @.str.14, i32 noundef 425, ptr noundef nonnull @.str.92, i32 noundef %27) #5
  %.not20 = icmp eq i32 %28, 0
  br i1 %.not20, label %.thread, label %29

29:                                               ; preds = %22
  %30 = load ptr, ptr %13, align 8, !tbaa !40
  %31 = load ptr, ptr @endentity2, align 8, !tbaa !11
  %32 = tail call i32 @OPENSSL_sk_push(ptr noundef %30, ptr noundef %31) #5
  %33 = icmp ne i32 %32, 0
  %34 = zext i1 %33 to i32
  %35 = tail call i32 @test_true(ptr noundef nonnull @.str.14, i32 noundef 426, ptr noundef nonnull @.str.93, i32 noundef %34) #5
  %.not21 = icmp eq i32 %35, 0
  br i1 %.not21, label %.thread, label %36

36:                                               ; preds = %29
  %37 = load ptr, ptr %13, align 8, !tbaa !40
  %38 = load ptr, ptr @intermediate, align 8, !tbaa !11
  %39 = tail call i32 @OPENSSL_sk_push(ptr noundef %37, ptr noundef %38) #5
  %40 = icmp ne i32 %39, 0
  %41 = zext i1 %40 to i32
  %42 = tail call i32 @test_true(ptr noundef nonnull @.str.14, i32 noundef 427, ptr noundef nonnull @.str.94, i32 noundef %41) #5
  %.not22 = icmp eq i32 %42, 0
  br i1 %.not22, label %.thread, label %tear_down.exit25

.thread:                                          ; preds = %3, %11, %15, %22, %29, %36
  %43 = getelementptr inbounds nuw i8, ptr %1, i64 8
  %44 = load ptr, ptr %43, align 8, !tbaa !36
  tail call void @OSSL_CMP_CTX_free(ptr noundef %44) #5
  %45 = getelementptr inbounds nuw i8, ptr %1, i64 16
  %46 = load ptr, ptr %45, align 8, !tbaa !19
  tail call void @OSSL_CMP_MSG_free(ptr noundef %46) #5
  %47 = getelementptr inbounds nuw i8, ptr %1, i64 24
  %48 = load ptr, ptr %47, align 8, !tbaa !37
  tail call void @OSSL_CMP_PKISI_free(ptr noundef %48) #5
  %49 = getelementptr inbounds nuw i8, ptr %1, i64 40
  %50 = load ptr, ptr %49, align 8, !tbaa !38
  tail call void @CRYPTO_free(ptr noundef %50, ptr noundef nonnull @.str.14, i32 noundef 46) #5
  %51 = load ptr, ptr %9, align 8, !tbaa !39
  tail call void @OPENSSL_sk_free(ptr noundef %51) #5
  %52 = getelementptr inbounds nuw i8, ptr %1, i64 72
  br label %.sink.split

tear_down.exit25:                                 ; preds = %36
  %53 = tail call fastcc i32 @execute_cmp_build_cert_chain_test(ptr noundef %1)
  %54 = getelementptr inbounds nuw i8, ptr %1, i64 8
  %55 = load ptr, ptr %54, align 8, !tbaa !36
  tail call void @OSSL_CMP_CTX_free(ptr noundef %55) #5
  %56 = getelementptr inbounds nuw i8, ptr %1, i64 16
  %57 = load ptr, ptr %56, align 8, !tbaa !19
  tail call void @OSSL_CMP_MSG_free(ptr noundef %57) #5
  %58 = getelementptr inbounds nuw i8, ptr %1, i64 24
  %59 = load ptr, ptr %58, align 8, !tbaa !37
  tail call void @OSSL_CMP_PKISI_free(ptr noundef %59) #5
  %60 = getelementptr inbounds nuw i8, ptr %1, i64 40
  %61 = load ptr, ptr %60, align 8, !tbaa !38
  tail call void @CRYPTO_free(ptr noundef %61, ptr noundef nonnull @.str.14, i32 noundef 46) #5
  %62 = load ptr, ptr %9, align 8, !tbaa !39
  tail call void @OPENSSL_sk_free(ptr noundef %62) #5
  br label %.sink.split

.sink.split:                                      ; preds = %tear_down.exit25, %.thread
  %.sink.in = phi ptr [ %52, %.thread ], [ %13, %tear_down.exit25 ]
  %.016.ph = phi i32 [ 0, %.thread ], [ %53, %tear_down.exit25 ]
  %.sink = load ptr, ptr %.sink.in, align 8, !tbaa !40
  tail call void @OPENSSL_sk_free(ptr noundef %.sink) #5
  tail call void @CRYPTO_free(ptr noundef nonnull %1, ptr noundef nonnull @.str.14, i32 noundef 50) #5
  br label %63

63:                                               ; preds = %.sink.split, %0
  %.016 = phi i32 [ 0, %0 ], [ %.016.ph, %.sink.split ]
  ret i32 %.016
}